target datalayout = "e-m:e-p270:32:32-p271:32:32-p272:64:64-i64:64-i128:128-f80:128-n8:16:32:64-S128"
target triple = "x86_64-pc-linux-gnu"

%"struct.OpenColorIO_v2_5dev::BuiltinTransformRegistryImpl::BuiltinData" = type { %"class.std::__cxx11::basic_string", %"class.std::__cxx11::basic_string", %"class.std::function" }
%"class.std::__cxx11::basic_string" = type { %"struct.std::__cxx11::basic_string<char>::_Alloc_hider", i64, %union.anon }
%"struct.std::__cxx11::basic_string<char>::_Alloc_hider" = type { ptr }
%union.anon = type { i64, [8 x i8] }
%"class.std::function" = type { %"class.std::_Function_base", ptr }
%"class.std::_Function_base" = type { %"union.std::_Any_data", ptr }
%"union.std::_Any_data" = type { %"union.std::_Nocopy_types" }
%"union.std::_Nocopy_types" = type { { i64, i64 } }
%"class.OpenColorIO_v2_5dev::BuiltinTransformRegistryImpl" = type { %"class.OpenColorIO_v2_5dev::BuiltinTransformRegistry", %"class.std::vector" }
%"class.OpenColorIO_v2_5dev::BuiltinTransformRegistry" = type { ptr }
%"class.std::vector" = type { %"struct.std::_Vector_base" }
%"struct.std::_Vector_base" = type { %"struct.std::_Vector_base<OpenColorIO_v2_5dev::BuiltinTransformRegistryImpl::BuiltinData, std::allocator<OpenColorIO_v2_5dev::BuiltinTransformRegistryImpl::BuiltinData>>::_Vector_impl" }
%"struct.std::_Vector_base<OpenColorIO_v2_5dev::BuiltinTransformRegistryImpl::BuiltinData, std::allocator<OpenColorIO_v2_5dev::BuiltinTransformRegistryImpl::BuiltinData>>::_Vector_impl" = type { %"struct.std::_Vector_base<OpenColorIO_v2_5dev::BuiltinTransformRegistryImpl::BuiltinData, std::allocator<OpenColorIO_v2_5dev::BuiltinTransformRegistryImpl::BuiltinData>>::_Vector_impl_data" }
%"struct.std::_Vector_base<OpenColorIO_v2_5dev::BuiltinTransformRegistryImpl::BuiltinData, std::allocator<OpenColorIO_v2_5dev::BuiltinTransformRegistryImpl::BuiltinData>>::_Vector_impl_data" = type { ptr, ptr, ptr }

@.str.2 = private unnamed_addr constant [15 x i8] c"Invalid index.\00", align 1
@_ZTIN19OpenColorIO_v2_5dev9ExceptionE = external constant ptr

; Function Attrs: mustprogress nounwind uwtable
define available_externally noundef ptr @_ZNKSt7__cxx1112basic_stringIcSt11char_traitsIcESaIcEE7_M_dataEv(ptr noundef nonnull align 8 dereferenceable(32) %0) #4 align 2 {
  %2 = alloca ptr, align 8
  store ptr %0, ptr %2, align 8, !tbaa !51
  %3 = load ptr, ptr %2, align 8
  %4 = getelementptr inbounds nuw %"class.std::__cxx11::basic_string", ptr %3, i32 0, i32 0
  %5 = getelementptr inbounds nuw %"struct.std::__cxx11::basic_string<char>::_Alloc_hider", ptr %4, i32 0, i32 0
  %6 = load ptr, ptr %5, align 8, !tbaa !108
  ret ptr %6
}

; Function Attrs: mustprogress nounwind uwtable
define available_externally noundef ptr @_ZNKSt7__cxx1112basic_stringIcSt11char_traitsIcESaIcEE5c_strEv(ptr noundef nonnull align 8 dereferenceable(32) %0) #4 align 2 {
  %2 = alloca ptr, align 8
  store ptr %0, ptr %2, align 8, !tbaa !51
  %3 = load ptr, ptr %2, align 8
  %4 = call noundef ptr @_ZNKSt7__cxx1112basic_stringIcSt11char_traitsIcESaIcEE7_M_dataEv(ptr noundef nonnull align 8 dereferenceable(32) %3)
  ret ptr %4
}

; Function Attrs: mustprogress nounwind uwtable
define linkonce_odr hidden noundef nonnull align 8 dereferenceable(96) ptr @_ZNKSt6vectorIN19OpenColorIO_v2_5dev28BuiltinTransformRegistryImpl11BuiltinDataESaIS2_EEixEm(ptr noundef nonnull align 8 dereferenceable(24) %0, i64 noundef %1) #4 comdat align 2 {
  %3 = alloca ptr, align 8
  %4 = alloca i64, align 8
  store ptr %0, ptr %3, align 8, !tbaa !37
  store i64 %1, ptr %4, align 8, !tbaa !57
  %5 = load ptr, ptr %3, align 8
  %6 = getelementptr inbounds nuw %"struct.std::_Vector_base", ptr %5, i32 0, i32 0
  %7 = getelementptr inbounds nuw %"struct.std::_Vector_base<OpenColorIO_v2_5dev::BuiltinTransformRegistryImpl::BuiltinData, std::allocator<OpenColorIO_v2_5dev::BuiltinTransformRegistryImpl::BuiltinData>>::_Vector_impl_data", ptr %6, i32 0, i32 0
  %8 = load ptr, ptr %7, align 8, !tbaa !56
  %9 = load i64, ptr %4, align 8, !tbaa !57
  %10 = getelementptr inbounds nuw %"struct.OpenColorIO_v2_5dev::BuiltinTransformRegistryImpl::BuiltinData", ptr %8, i64 %9
  ret ptr %10
}

; Function Attrs: mustprogress nounwind uwtable
define linkonce_odr hidden noundef i64 @_ZNKSt6vectorIN19OpenColorIO_v2_5dev28BuiltinTransformRegistryImpl11BuiltinDataESaIS2_EE4sizeEv(ptr noundef nonnull align 8 dereferenceable(24) %0) #4 comdat align 2 {
  %2 = alloca ptr, align 8
  store ptr %0, ptr %2, align 8, !tbaa !37
  %3 = load ptr, ptr %2, align 8
  %4 = getelementptr inbounds nuw %"struct.std::_Vector_base", ptr %3, i32 0, i32 0
  %5 = getelementptr inbounds nuw %"struct.std::_Vector_base<OpenColorIO_v2_5dev::BuiltinTransformRegistryImpl::BuiltinData, std::allocator<OpenColorIO_v2_5dev::BuiltinTransformRegistryImpl::BuiltinData>>::_Vector_impl_data", ptr %4, i32 0, i32 1
  %6 = load ptr, ptr %5, align 8, !tbaa !53
  %7 = getelementptr inbounds nuw %"struct.std::_Vector_base", ptr %3, i32 0, i32 0
  %8 = getelementptr inbounds nuw %"struct.std::_Vector_base<OpenColorIO_v2_5dev::BuiltinTransformRegistryImpl::BuiltinData, std::allocator<OpenColorIO_v2_5dev::BuiltinTransformRegistryImpl::BuiltinData>>::_Vector_impl_data", ptr %7, i32 0, i32 0
  %9 = load ptr, ptr %8, align 8, !tbaa !56
  %10 = ptrtoint ptr %6 to i64
  %11 = ptrtoint ptr %9 to i64
  %12 = sub i64 %10, %11
  %13 = sdiv exact i64 %12, 96
  ret i64 %13
}

; Function Attrs: mustprogress uwtable
define hidden noundef ptr @_ZNK19OpenColorIO_v2_5dev28BuiltinTransformRegistryImpl15getBuiltinStyleEm(ptr noundef nonnull align 8 dereferenceable(32) %0, i64 noundef %1) unnamed_addr #6 align 2 personality ptr @__gxx_personality_v0 {
  %3 = alloca ptr, align 8
  %4 = alloca i64, align 8
  %5 = alloca ptr, align 8
  %6 = alloca i32, align 4
  store ptr %0, ptr %3, align 8, !tbaa !29
  store i64 %1, ptr %4, align 8, !tbaa !57
  %7 = load ptr, ptr %3, align 8
  %8 = load i64, ptr %4, align 8, !tbaa !57
  %9 = getelementptr inbounds nuw %"class.OpenColorIO_v2_5dev::BuiltinTransformRegistryImpl", ptr %7, i32 0, i32 1
  %10 = call noundef i64 @_ZNKSt6vectorIN19OpenColorIO_v2_5dev28BuiltinTransformRegistryImpl11BuiltinDataESaIS2_EE4sizeEv(ptr noundef nonnull align 8 dereferenceable(24) %9) #3
  %11 = icmp uge i64 %8, %10
  br i1 %11, label %12, label %19

12:                                               ; preds = %2
  %13 = call ptr @__cxa_allocate_exception(i64 16) #3
  invoke void @_ZN19OpenColorIO_v2_5dev9ExceptionC1EPKc(ptr noundef nonnull align 8 dereferenceable(16) %13, ptr noundef @.str.2)
          to label %14 unwind label %15

14:                                               ; preds = %12
  call void @__cxa_throw(ptr %13, ptr @_ZTIN19OpenColorIO_v2_5dev9ExceptionE, ptr @_ZN19OpenColorIO_v2_5dev9ExceptionD1Ev) #22
  unreachable

15:                                               ; preds = %12
  %16 = landingpad { ptr, i32 }
          cleanup
  %17 = extractvalue { ptr, i32 } %16, 0
  store ptr %17, ptr %5, align 8
  %18 = extractvalue { ptr, i32 } %16, 1
  store i32 %18, ptr %6, align 4
  call void @__cxa_free_exception(ptr %13) #3
  br label %25

19:                                               ; preds = %2
  %20 = getelementptr inbounds nuw %"class.OpenColorIO_v2_5dev::BuiltinTransformRegistryImpl", ptr %7, i32 0, i32 1
  %21 = load i64, ptr %4, align 8, !tbaa !57
  %22 = call noundef nonnull align 8 dereferenceable(96) ptr @_ZNKSt6vectorIN19OpenColorIO_v2_5dev28BuiltinTransformRegistryImpl11BuiltinDataESaIS2_EEixEm(ptr noundef nonnull align 8 dereferenceable(24) %20, i64 noundef %21) #3
  %23 = getelementptr inbounds nuw %"struct.OpenColorIO_v2_5dev::BuiltinTransformRegistryImpl::BuiltinData", ptr %22, i32 0, i32 0
  %24 = call noundef ptr @_ZNKSt7__cxx1112basic_stringIcSt11char_traitsIcESaIcEE5c_strEv(ptr noundef nonnull align 8 dereferenceable(32) %23) #3
  ret ptr %24

25:                                               ; preds = %15
  %26 = load ptr, ptr %5, align 8
  %27 = load i32, ptr %6, align 4
  %28 = insertvalue { ptr, i32 } poison, ptr %26, 0
  %29 = insertvalue { ptr, i32 } %28, i32 %27, 1
  resume { ptr, i32 } %29
}